target datalayout = "e-m:e-p270:32:32-p271:32:32-p272:64:64-i64:64-i128:128-f80:128-n8:16:32:64-S128"
target triple = "x86_64-pc-linux-gnu"

%class.btBU_Simplex1to4 = type { %class.btPolyhedralConvexAabbCachingShape.base, i32, [4 x %class.btVector3] }
%class.btPolyhedralConvexAabbCachingShape.base = type <{ %class.btPolyhedralConvexShape, %class.btVector3, %class.btVector3, i8 }>
%class.btPolyhedralConvexShape = type { %class.btConvexInternalShape, ptr }
%class.btConvexInternalShape = type { %class.btConvexShape, %class.btVector3, %class.btVector3, float, float }
%class.btConvexShape = type { %class.btCollisionShape }
%class.btCollisionShape = type { ptr, i32, ptr, i32, i32 }
%class.btVector3 = type { [4 x float] }

; Function Attrs: mustprogress nounwind uwtable
define dso_local void @_ZNK16btBU_Simplex1to47getEdgeEiR9btVector3S1_(ptr noundef nonnull align 8 dereferenceable(184) %0, i32 noundef %1, ptr noundef nonnull align 4 dereferenceable(16) %2, ptr noundef nonnull align 4 dereferenceable(16) %3) unnamed_addr #1 align 2 {
  %5 = alloca ptr, align 8
  %6 = alloca i32, align 4
  %7 = alloca ptr, align 8
  %8 = alloca ptr, align 8
  store ptr %0, ptr %5, align 8, !tbaa !12
  store i32 %1, ptr %6, align 4, !tbaa !9
  store ptr %2, ptr %7, align 8, !tbaa !28
  store ptr %3, ptr %8, align 8, !tbaa !28
  %9 = load ptr, ptr %5, align 8
  %10 = getelementptr inbounds nuw %class.btBU_Simplex1to4, ptr %9, i32 0, i32 1
  %11 = load i32, ptr %10, align 4, !tbaa !16
  switch i32 %11, label %88 [
    i32 2, label %12
    i32 3, label %19
    i32 4, label %43
  ]

12:                                               ; preds = %4
  %13 = getelementptr inbounds nuw %class.btBU_Simplex1to4, ptr %9, i32 0, i32 2
  %14 = getelementptr inbounds [4 x %class.btVector3], ptr %13, i64 0, i64 0
  %15 = load ptr, ptr %7, align 8, !tbaa !28
  call void @llvm.memcpy.p0.p0.i64(ptr align 4 %15, ptr align 8 %14, i64 16, i1 false), !tbaa.struct !30
  %16 = getelementptr inbounds nuw %class.btBU_Simplex1to4, ptr %9, i32 0, i32 2
  %17 = getelementptr inbounds [4 x %class.btVector3], ptr %16, i64 0, i64 1
  %18 = load ptr, ptr %8, align 8, !tbaa !28
  call void @llvm.memcpy.p0.p0.i64(ptr align 4 %18, ptr align 8 %17, i64 16, i1 false), !tbaa.struct !30
  br label %88

19:                                               ; preds = %4
  %20 = load i32, ptr %6, align 4, !tbaa !9
  switch i32 %20, label %42 [
    i32 0, label %21
    i32 1, label %28
    i32 2, label %35
  ]

21:                                               ; preds = %19
  %22 = getelementptr inbounds nuw %class.btBU_Simplex1to4, ptr %9, i32 0, i32 2
  %23 = getelementptr inbounds [4 x %class.btVector3], ptr %22, i64 0, i64 0
  %24 = load ptr, ptr %7, align 8, !tbaa !28
  call void @llvm.memcpy.p0.p0.i64(ptr align 4 %24, ptr align 8 %23, i64 16, i1 false), !tbaa.struct !30
  %25 = getelementptr inbounds nuw %class.btBU_Simplex1to4, ptr %9, i32 0, i32 2
  %26 = getelementptr inbounds [4 x %class.btVector3], ptr %25, i64 0, i64 1
  %27 = load ptr, ptr %8, align 8, !tbaa !28
  call void @llvm.memcpy.p0.p0.i64(ptr align 4 %27, ptr align 8 %26, i64 16, i1 false), !tbaa.struct !30
  br label %42

28:                                               ; preds = %19
  %29 = getelementptr inbounds nuw %class.btBU_Simplex1to4, ptr %9, i32 0, i32 2
  %30 = getelementptr inbounds [4 x %class.btVector3], ptr %29, i64 0, i64 1
  %31 = load ptr, ptr %7, align 8, !tbaa !28
  call void @llvm.memcpy.p0.p0.i64(ptr align 4 %31, ptr align 8 %30, i64 16, i1 false), !tbaa.struct !30
  %32 = getelementptr inbounds nuw %class.btBU_Simplex1to4, ptr %9, i32 0, i32 2
  %33 = getelementptr inbounds [4 x %class.btVector3], ptr %32, i64 0, i64 2
  %34 = load ptr, ptr %8, align 8, !tbaa !28
  call void @llvm.memcpy.p0.p0.i64(ptr align 4 %34, ptr align 8 %33, i64 16, i1 false), !tbaa.struct !30
  br label %42

35:                                               ; preds = %19
  %36 = getelementptr inbounds nuw %class.btBU_Simplex1to4, ptr %9, i32 0, i32 2
  %37 = getelementptr inbounds [4 x %class.btVector3], ptr %36, i64 0, i64 2
  %38 = load ptr, ptr %7, align 8, !tbaa !28
  call void @llvm.memcpy.p0.p0.i64(ptr align 4 %38, ptr align 8 %37, i64 16, i1 false), !tbaa.struct !30
  %39 = getelementptr inbounds nuw %class.btBU_Simplex1to4, ptr %9, i32 0, i32 2
  %40 = getelementptr inbounds [4 x %class.btVector3], ptr %39, i64 0, i64 0
  %41 = load ptr, ptr %8, align 8, !tbaa !28
  call void @llvm.memcpy.p0.p0.i64(ptr align 4 %41, ptr align 8 %40, i64 16, i1 false), !tbaa.struct !30
  br label %42

42:                                               ; preds = %19, %35, %28, %21
  br label %88

43:                                               ; preds = %4
  %44 = load i32, ptr %6, align 4, !tbaa !9
  switch i32 %44, label %87 [
    i32 0, label %45
    i32 1, label %52
    i32 2, label %59
    i32 3, label %66
    i32 4, label %73
    i32 5, label %80
  ]

45:                                               ; preds = %43
  %46 = getelementptr inbounds nuw %class.btBU_Simplex1to4, ptr %9, i32 0, i32 2
  %47 = getelementptr inbounds [4 x %class.btVector3], ptr %46, i64 0, i64 0
  %48 = load ptr, ptr %7, align 8, !tbaa !28
  call void @llvm.memcpy.p0.p0.i64(ptr align 4 %48, ptr align 8 %47, i64 16, i1 false), !tbaa.struct !30
  %49 = getelementptr inbounds nuw %class.btBU_Simplex1to4, ptr %9, i32 0, i32 2
  %50 = getelementptr inbounds [4 x %class.btVector3], ptr %49, i64 0, i64 1
  %51 = load ptr, ptr %8, align 8, !tbaa !28
  call void @llvm.memcpy.p0.p0.i64(ptr align 4 %51, ptr align 8 %50, i64 16, i1 false), !tbaa.struct !30
  br label %87

52:                                               ; preds = %43
  %53 = getelementptr inbounds nuw %class.btBU_Simplex1to4, ptr %9, i32 0, i32 2
  %54 = getelementptr inbounds [4 x %class.btVector3], ptr %53, i64 0, i64 1
  %55 = load ptr, ptr %7, align 8, !tbaa !28
  call void @llvm.memcpy.p0.p0.i64(ptr align 4 %55, ptr align 8 %54, i64 16, i1 false), !tbaa.struct !30
  %56 = getelementptr inbounds nuw %class.btBU_Simplex1to4, ptr %9, i32 0, i32 2
  %57 = getelementptr inbounds [4 x %class.btVector3], ptr %56, i64 0, i64 2
  %58 = load ptr, ptr %8, align 8, !tbaa !28
  call void @llvm.memcpy.p0.p0.i64(ptr align 4 %58, ptr align 8 %57, i64 16, i1 false), !tbaa.struct !30
  br label %87

59:                                               ; preds = %43
  %60 = getelementptr inbounds nuw %class.btBU_Simplex1to4, ptr %9, i32 0, i32 2
  %61 = getelementptr inbounds [4 x %class.btVector3], ptr %60, i64 0, i64 2
  %62 = load ptr, ptr %7, align 8, !tbaa !28
  call void @llvm.memcpy.p0.p0.i64(ptr align 4 %62, ptr align 8 %61, i64 16, i1 false), !tbaa.struct !30
  %63 = getelementptr inbounds nuw %class.btBU_Simplex1to4, ptr %9, i32 0, i32 2
  %64 = getelementptr inbounds [4 x %class.btVector3], ptr %63, i64 0, i64 0
  %65 = load ptr, ptr %8, align 8, !tbaa !28
  call void @llvm.memcpy.p0.p0.i64(ptr align 4 %65, ptr align 8 %64, i64 16, i1 false), !tbaa.struct !30
  br label %87

66:                                               ; preds = %43
  %67 = getelementptr inbounds nuw %class.btBU_Simplex1to4, ptr %9, i32 0, i32 2
  %68 = getelementptr inbounds [4 x %class.btVector3], ptr %67, i64 0, i64 0
  %69 = load ptr, ptr %7, align 8, !tbaa !28
  call void @llvm.memcpy.p0.p0.i64(ptr align 4 %69, ptr align 8 %68, i64 16, i1 false), !tbaa.struct !30
  %70 = getelementptr inbounds nuw %class.btBU_Simplex1to4, ptr %9, i32 0, i32 2
  %71 = getelementptr inbounds [4 x %class.btVector3], ptr %70, i64 0, i64 3
  %72 = load ptr, ptr %8, align 8, !tbaa !28
  call void @llvm.memcpy.p0.p0.i64(ptr align 4 %72, ptr align 8 %71, i64 16, i1 false), !tbaa.struct !30
  br label %87

73:                                               ; preds = %43
  %74 = getelementptr inbounds nuw %class.btBU_Simplex1to4, ptr %9, i32 0, i32 2
  %75 = getelementptr inbounds [4 x %class.btVector3], ptr %74, i64 0, i64 1
  %76 = load ptr, ptr %7, align 8, !tbaa !28
  call void @llvm.memcpy.p0.p0.i64(ptr align 4 %76, ptr align 8 %75, i64 16, i1 false), !tbaa.struct !30
  %77 = getelementptr inbounds nuw %class.btBU_Simplex1to4, ptr %9, i32 0, i32 2
  %78 = getelementptr inbounds [4 x %class.btVector3], ptr %77, i64 0, i64 3
  %79 = load ptr, ptr %8, align 8, !tbaa !28
  call void @llvm.memcpy.p0.p0.i64(ptr align 4 %79, ptr align 8 %78, i64 16, i1 false), !tbaa.struct !30
  br label %87

80:                                               ; preds = %43
  %81 = getelementptr inbounds nuw %class.btBU_Simplex1to4, ptr %9, i32 0, i32 2
  %82 = getelementptr inbounds [4 x %class.btVector3], ptr %81, i64 0, i64 2
  %83 = load ptr, ptr %7, align 8, !tbaa !28
  call void @llvm.memcpy.p0.p0.i64(ptr align 4 %83, ptr align 8 %82, i64 16, i1 false), !tbaa.struct !30
  %84 = getelementptr inbounds nuw %class.btBU_Simplex1to4, ptr %9, i32 0, i32 2
  %85 = getelementptr inbounds [4 x %class.btVector3], ptr %84, i64 0, i64 3
  %86 = load ptr, ptr %8, align 8, !tbaa !28
  call void @llvm.memcpy.p0.p0.i64(ptr align 4 %86, ptr align 8 %85, i64 16, i1 false), !tbaa.struct !30
  br label %87

87:                                               ; preds = %43, %80, %73, %66, %59, %52, %45
  br label %88

88:                                               ; preds = %87, %4, %42, %12
  ret void
}