; Function Attrs: mustprogress nofree norecurse nosync nounwind willreturn memory(argmem: readwrite) uwtable
define dso_local void @_ZNK16btBU_Simplex1to47getEdgeEiR9btVector3S1_(ptr noundef nonnull readonly align 8 captures(none) dereferenceable(184) %0, i32 noundef %1, ptr noundef nonnull writeonly align 4 captures(none) dereferenceable(16) %2, ptr noundef nonnull writeonly align 4 captures(none) dereferenceable(16) %3) unnamed_addr #4 align 2 {
  %5 = getelementptr inbounds nuw i8, ptr %0, i64 116
  %6 = load i32, ptr %5, align 4, !tbaa !7
  switch i32 %6, label %39 [
    i32 2, label %7
    i32 3, label %10
    i32 4, label %20
  ]

7:                                                ; preds = %4
  %8 = getelementptr inbounds nuw i8, ptr %0, i64 120
  tail call void @llvm.memcpy.p0.p0.i64(ptr noundef nonnull align 4 dereferenceable(16) %2, ptr noundef nonnull align 8 dereferenceable(16) %8, i64 16, i1 false), !tbaa.struct !22
  %9 = getelementptr inbounds nuw i8, ptr %0, i64 136
  br label %.sink.split

10:                                               ; preds = %4
  switch i32 %1, label %39 [
    i32 0, label %11
    i32 1, label %14
    i32 2, label %17
  ]

11:                                               ; preds = %10
  %12 = getelementptr inbounds nuw i8, ptr %0, i64 120
  tail call void @llvm.memcpy.p0.p0.i64(ptr noundef nonnull align 4 dereferenceable(16) %2, ptr noundef nonnull align 8 dereferenceable(16) %12, i64 16, i1 false), !tbaa.struct !22
  %13 = getelementptr inbounds nuw i8, ptr %0, i64 136
  br label %.sink.split

14:                                               ; preds = %10
  %15 = getelementptr inbounds nuw i8, ptr %0, i64 136
  tail call void @llvm.memcpy.p0.p0.i64(ptr noundef nonnull align 4 dereferenceable(16) %2, ptr noundef nonnull align 8 dereferenceable(16) %15, i64 16, i1 false), !tbaa.struct !22
  %16 = getelementptr inbounds nuw i8, ptr %0, i64 152
  br label %.sink.split

17:                                               ; preds = %10
  %18 = getelementptr inbounds nuw i8, ptr %0, i64 120
  %19 = getelementptr inbounds nuw i8, ptr %0, i64 152
  tail call void @llvm.memcpy.p0.p0.i64(ptr noundef nonnull align 4 dereferenceable(16) %2, ptr noundef nonnull align 8 dereferenceable(16) %19, i64 16, i1 false), !tbaa.struct !22
  br label %.sink.split

20:                                               ; preds = %4
  switch i32 %1, label %39 [
    i32 0, label %21
    i32 1, label %24
    i32 2, label %27
    i32 3, label %30
    i32 4, label %33
    i32 5, label %36
  ]

21:                                               ; preds = %20
  %22 = getelementptr inbounds nuw i8, ptr %0, i64 120
  tail call void @llvm.memcpy.p0.p0.i64(ptr noundef nonnull align 4 dereferenceable(16) %2, ptr noundef nonnull align 8 dereferenceable(16) %22, i64 16, i1 false), !tbaa.struct !22
  %23 = getelementptr inbounds nuw i8, ptr %0, i64 136
  br label %.sink.split

24:                                               ; preds = %20
  %25 = getelementptr inbounds nuw i8, ptr %0, i64 136
  tail call void @llvm.memcpy.p0.p0.i64(ptr noundef nonnull align 4 dereferenceable(16) %2, ptr noundef nonnull align 8 dereferenceable(16) %25, i64 16, i1 false), !tbaa.struct !22
  %26 = getelementptr inbounds nuw i8, ptr %0, i64 152
  br label %.sink.split

27:                                               ; preds = %20
  %28 = getelementptr inbounds nuw i8, ptr %0, i64 120
  %29 = getelementptr inbounds nuw i8, ptr %0, i64 152
  tail call void @llvm.memcpy.p0.p0.i64(ptr noundef nonnull align 4 dereferenceable(16) %2, ptr noundef nonnull align 8 dereferenceable(16) %29, i64 16, i1 false), !tbaa.struct !22
  br label %.sink.split

30:                                               ; preds = %20
  %31 = getelementptr inbounds nuw i8, ptr %0, i64 120
  tail call void @llvm.memcpy.p0.p0.i64(ptr noundef nonnull align 4 dereferenceable(16) %2, ptr noundef nonnull align 8 dereferenceable(16) %31, i64 16, i1 false), !tbaa.struct !22
  %32 = getelementptr inbounds nuw i8, ptr %0, i64 168
  br label %.sink.split

33:                                               ; preds = %20
  %34 = getelementptr inbounds nuw i8, ptr %0, i64 136
  tail call void @llvm.memcpy.p0.p0.i64(ptr noundef nonnull align 4 dereferenceable(16) %2, ptr noundef nonnull align 8 dereferenceable(16) %34, i64 16, i1 false), !tbaa.struct !22
  %35 = getelementptr inbounds nuw i8, ptr %0, i64 168
  br label %.sink.split

36:                                               ; preds = %20
  %37 = getelementptr inbounds nuw i8, ptr %0, i64 152
  tail call void @llvm.memcpy.p0.p0.i64(ptr noundef nonnull align 4 dereferenceable(16) %2, ptr noundef nonnull align 8 dereferenceable(16) %37, i64 16, i1 false), !tbaa.struct !22
  %38 = getelementptr inbounds nuw i8, ptr %0, i64 168
  br label %.sink.split

.sink.split:                                      ; preds = %7, %17, %14, %11, %36, %33, %30, %27, %24, %21
  %.sink = phi ptr [ %23, %21 ], [ %26, %24 ], [ %28, %27 ], [ %32, %30 ], [ %35, %33 ], [ %38, %36 ], [ %13, %11 ], [ %16, %14 ], [ %18, %17 ], [ %9, %7 ]
  tail call void @llvm.memcpy.p0.p0.i64(ptr noundef nonnull align 4 dereferenceable(16) %3, ptr noundef nonnull align 8 dereferenceable(16) %.sink, i64 16, i1 false)
  br label %39

39:                                               ; preds = %.sink.split, %20, %10, %4
  ret void
}